target datalayout = "e-m:e-p270:32:32-p271:32:32-p272:64:64-i64:64-i128:128-f80:128-n8:16:32:64-S128"
target triple = "x86_64-pc-linux-gnu"

%struct._capture_file = type { ptr, i32, ptr, ptr, i8, i8, i8, i64, i16, i32, i32, i32, ptr, i32, i64, i32, i32, i32, i32, i8, i32, %struct.nstime_t, i32, ptr, ptr, ptr, i8, i8, i32, ptr, i8, i8, i8, i8, i8, i32, i32, i8, ptr, i32, i32, i8, %struct.packet_provider_data, i32, i32, %struct.epan_column_info, ptr, ptr, ptr, %struct.wtap_rec, %struct.Buffer, ptr, i64, i32 }
%struct.nstime_t = type { i64, i32 }
%struct.packet_provider_data = type { ptr, ptr, ptr, ptr, ptr, ptr }
%struct.epan_column_info = type { ptr, i32, ptr, ptr, ptr, %struct.col_expr_t, i8, ptr }
%struct.col_expr_t = type { ptr, ptr }
%struct.wtap_rec = type { i32, i32, i32, %struct.nstime_t, i32, %struct.nstime_t, i8, %union.anon, ptr, i8, %struct.Buffer, %struct.Buffer }
%union.anon = type { %struct.wtap_packet_header }
%struct.wtap_packet_header = type { i32, i32, i32, i32, %union.wtap_pseudo_header }
%union.wtap_pseudo_header = type { %struct.erf_mc_phdr }
%struct.erf_mc_phdr = type { %struct.erf_phdr, [16 x %struct.erf_ehdr], %union.anon.1 }
%struct.erf_phdr = type { i64, i8, i8, i16, i16, i16 }
%struct.erf_ehdr = type { i64 }
%union.anon.1 = type { i32 }
%struct.Buffer = type { ptr, i64, i64, i64 }
%struct.col_item_t = type { i32, ptr, ptr, ptr, i32, ptr, ptr, ptr, ptr, i32, i8, i32 }
%struct.col_custom_t = type { ptr, ptr, i32 }
%struct._header_field_info = type { ptr, ptr, i32, i32, ptr, i64, ptr, i32, i32, i32, i32, ptr }

; Function Attrs: null_pointer_is_valid sspstrong uwtable
define hidden zeroext i1 @display_column_details(i32 noundef %0, ptr noundef %1) #0 {
  %3 = alloca i1, align 1
  %4 = alloca i32, align 4
  %5 = alloca ptr, align 8
  %6 = alloca ptr, align 8
  %7 = alloca i8, align 1
  %8 = alloca i32, align 4
  %9 = alloca i32, align 4
  %10 = alloca ptr, align 8
  %11 = alloca i32, align 4
  store i32 %0, ptr %4, align 4
  store ptr %1, ptr %5, align 8
  call void @llvm.lifetime.start.p0(i64 8, ptr %6) #3
  call void @llvm.lifetime.start.p0(i64 1, ptr %7) #3
  store i8 0, ptr %7, align 1
  call void @llvm.lifetime.start.p0(i64 4, ptr %8) #3
  call void @llvm.lifetime.start.p0(i64 4, ptr %9) #3
  call void @llvm.lifetime.start.p0(i64 8, ptr %10) #3
  %12 = load ptr, ptr %5, align 8
  %13 = icmp ne ptr %12, null
  br i1 %13, label %15, label %14

14:                                               ; preds = %2
  store i1 false, ptr %3, align 1
  store i32 1, ptr %11, align 4
  br label %80

15:                                               ; preds = %2
  %16 = load ptr, ptr %5, align 8
  %17 = getelementptr inbounds nuw %struct._capture_file, ptr %16, i32 0, i32 45
  %18 = getelementptr inbounds nuw %struct.epan_column_info, ptr %17, i32 0, i32 2
  %19 = load ptr, ptr %18, align 8
  %20 = load i32, ptr %4, align 4
  %21 = sext i32 %20 to i64
  %22 = getelementptr %struct.col_item_t, ptr %19, i64 %21
  %23 = getelementptr inbounds nuw %struct.col_item_t, ptr %22, i32 0, i32 0
  %24 = load i32, ptr %23, align 8
  switch i32 %24, label %76 [
    i32 4, label %25
  ]

25:                                               ; preds = %15
  %26 = load ptr, ptr %5, align 8
  %27 = getelementptr inbounds nuw %struct._capture_file, ptr %26, i32 0, i32 45
  %28 = getelementptr inbounds nuw %struct.epan_column_info, ptr %27, i32 0, i32 2
  %29 = load ptr, ptr %28, align 8
  %30 = load i32, ptr %4, align 4
  %31 = sext i32 %30 to i64
  %32 = getelementptr %struct.col_item_t, ptr %29, i64 %31
  %33 = getelementptr inbounds nuw %struct.col_item_t, ptr %32, i32 0, i32 5
  %34 = load ptr, ptr %33, align 8
  %35 = call i32 @g_slist_length(ptr noundef %34)
  store i32 %35, ptr %8, align 4
  store i32 0, ptr %9, align 4
  br label %36

36:                                               ; preds = %72, %25
  %37 = load i32, ptr %9, align 4
  %38 = load i32, ptr %8, align 4
  %39 = icmp ult i32 %37, %38
  br i1 %39, label %40, label %75

40:                                               ; preds = %36
  %41 = load ptr, ptr %5, align 8
  %42 = getelementptr inbounds nuw %struct._capture_file, ptr %41, i32 0, i32 45
  %43 = getelementptr inbounds nuw %struct.epan_column_info, ptr %42, i32 0, i32 2
  %44 = load ptr, ptr %43, align 8
  %45 = load i32, ptr %4, align 4
  %46 = sext i32 %45 to i64
  %47 = getelementptr %struct.col_item_t, ptr %44, i64 %46
  %48 = getelementptr inbounds nuw %struct.col_item_t, ptr %47, i32 0, i32 5
  %49 = load ptr, ptr %48, align 8
  %50 = load i32, ptr %9, align 4
  %51 = call ptr @g_slist_nth_data(ptr noundef %49, i32 noundef %50)
  store ptr %51, ptr %10, align 8
  %52 = load ptr, ptr %10, align 8
  %53 = getelementptr inbounds nuw %struct.col_custom_t, ptr %52, i32 0, i32 2
  %54 = load i32, ptr %53, align 8
  %55 = icmp eq i32 %54, 0
  br i1 %55, label %56, label %57

56:                                               ; preds = %40
  br label %72

57:                                               ; preds = %40
  %58 = load ptr, ptr %10, align 8
  %59 = getelementptr inbounds nuw %struct.col_custom_t, ptr %58, i32 0, i32 2
  %60 = load i32, ptr %59, align 8
  %61 = call ptr @proto_registrar_get_nth(i32 noundef %60)
  store ptr %61, ptr %6, align 8
  %62 = load ptr, ptr %6, align 8
  %63 = icmp ne ptr %62, null
  br i1 %63, label %64, label %71

64:                                               ; preds = %57
  %65 = load ptr, ptr %6, align 8
  %66 = getelementptr inbounds nuw %struct._header_field_info, ptr %65, i32 0, i32 3
  %67 = load i32, ptr %66, align 4
  %68 = and i32 %67, 8192
  %69 = icmp ne i32 %68, 0
  br i1 %69, label %71, label %70

70:                                               ; preds = %64
  store i8 1, ptr %7, align 1
  br label %75

71:                                               ; preds = %64, %57
  br label %72

72:                                               ; preds = %71, %56
  %73 = load i32, ptr %9, align 4
  %74 = add i32 %73, 1
  store i32 %74, ptr %9, align 4
  br label %36, !llvm.loop !11

75:                                               ; preds = %70, %36
  br label %77

76:                                               ; preds = %15
  br label %77

77:                                               ; preds = %76, %75
  %78 = load i8, ptr %7, align 1, !range !8, !noundef !9
  %79 = trunc i8 %78 to i1
  store i1 %79, ptr %3, align 1
  store i32 1, ptr %11, align 4
  br label %80

80:                                               ; preds = %77, %14
  call void @llvm.lifetime.end.p0(i64 8, ptr %10) #3
  call void @llvm.lifetime.end.p0(i64 4, ptr %9) #3
  call void @llvm.lifetime.end.p0(i64 4, ptr %8) #3
  call void @llvm.lifetime.end.p0(i64 1, ptr %7) #3
  call void @llvm.lifetime.end.p0(i64 8, ptr %6) #3
  %81 = load i1, ptr %3, align 1
  ret i1 %81
}