; Function Attrs: null_pointer_is_valid sspstrong uwtable
define hidden noundef zeroext i1 @display_column_details(i32 noundef %0, ptr noundef readonly captures(address_is_null) %1) local_unnamed_addr #0 {
  %.not = icmp eq ptr %1, null
  br i1 %.not, label %.loopexit, label %3

3:                                                ; preds = %2
  %4 = getelementptr inbounds nuw i8, ptr %1, i64 296
  %5 = load ptr, ptr %4, align 8
  %6 = sext i32 %0 to i64
  %7 = getelementptr %struct.col_item_t, ptr %5, i64 %6
  %8 = load i32, ptr %7, align 8
  %cond = icmp eq i32 %8, 4
  br i1 %cond, label %9, label %.loopexit

9:                                                ; preds = %3
  %10 = getelementptr inbounds nuw i8, ptr %7, i64 40
  %11 = load ptr, ptr %10, align 8
  %12 = tail call i32 @g_slist_length(ptr noundef %11)
  %.not26 = icmp eq i32 %12, 0
  br i1 %.not26, label %.loopexit, label %.lr.ph

.lr.ph:                                           ; preds = %9, %26
  %.01623 = phi i32 [ %27, %26 ], [ 0, %9 ]
  %13 = load ptr, ptr %4, align 8
  %14 = getelementptr %struct.col_item_t, ptr %13, i64 %6, i32 5
  %15 = load ptr, ptr %14, align 8
  %16 = tail call ptr @g_slist_nth_data(ptr noundef %15, i32 noundef %.01623)
  %17 = getelementptr inbounds nuw i8, ptr %16, i64 16
  %18 = load i32, ptr %17, align 8
  %19 = icmp eq i32 %18, 0
  br i1 %19, label %26, label %20

20:                                               ; preds = %.lr.ph
  %21 = tail call ptr @proto_registrar_get_nth(i32 noundef %18)
  %.not21 = icmp eq ptr %21, null
  br i1 %.not21, label %26, label %22

22:                                               ; preds = %20
  %23 = getelementptr inbounds nuw i8, ptr %21, i64 20
  %24 = load i32, ptr %23, align 4
  %25 = and i32 %24, 8192
  %.not22 = icmp eq i32 %25, 0
  br i1 %.not22, label %.loopexit, label %26

26:                                               ; preds = %20, %22, %.lr.ph
  %27 = add nuw i32 %.01623, 1
  %exitcond.not = icmp eq i32 %27, %12
  br i1 %exitcond.not, label %.loopexit, label %.lr.ph, !llvm.loop !9

.loopexit:                                        ; preds = %22, %26, %9, %3, %2
  %.0 = phi i1 [ false, %2 ], [ false, %3 ], [ false, %9 ], [ true, %22 ], [ false, %26 ]
  ret i1 %.0
}